; Function Attrs: mustprogress nounwind uwtable
define hidden void @_ZN5osgeo4proj9operation26InverseCoordinateOperationD2Ev(ptr noundef nonnull align 8 captures(none) dereferenceable(25) initializes((0, 8)) %0, ptr noundef readonly captures(none) %1) unnamed_addr #1 align 2 personality ptr @__gxx_personality_v0 {
  %3 = load ptr, ptr %1, align 8
  store ptr %3, ptr %0, align 8, !tbaa !3
  %4 = getelementptr inbounds nuw i8, ptr %1, i64 8
  %5 = load ptr, ptr %4, align 8
  %6 = getelementptr i8, ptr %3, i64 -24
  %7 = load i64, ptr %6, align 8
  %8 = getelementptr inbounds i8, ptr %0, i64 %7
  store ptr %5, ptr %8, align 8, !tbaa !3
  %9 = getelementptr inbounds nuw i8, ptr %1, i64 16
  %10 = load ptr, ptr %9, align 8
  %11 = load ptr, ptr %0, align 8, !tbaa !3
  %12 = getelementptr i8, ptr %11, i64 -24
  %13 = load i64, ptr %12, align 8
  %14 = getelementptr i8, ptr %0, i64 %13
  %15 = getelementptr i8, ptr %14, i64 16
  store ptr %10, ptr %15, align 8, !tbaa !3
  %16 = getelementptr inbounds nuw i8, ptr %1, i64 24
  %17 = load ptr, ptr %16, align 8
  %18 = load ptr, ptr %0, align 8, !tbaa !3
  %19 = getelementptr i8, ptr %18, i64 -24
  %20 = load i64, ptr %19, align 8
  %21 = getelementptr i8, ptr %0, i64 %20
  %22 = getelementptr i8, ptr %21, i64 24
  store ptr %17, ptr %22, align 8, !tbaa !3
  %23 = getelementptr inbounds nuw i8, ptr %1, i64 32
  %24 = load ptr, ptr %23, align 8
  %25 = load ptr, ptr %0, align 8, !tbaa !3
  %26 = getelementptr i8, ptr %25, i64 -24
  %27 = load i64, ptr %26, align 8
  %28 = getelementptr i8, ptr %0, i64 %27
  %29 = getelementptr i8, ptr %28, i64 48
  store ptr %24, ptr %29, align 8, !tbaa !3
  %30 = getelementptr inbounds nuw i8, ptr %1, i64 40
  %31 = load ptr, ptr %30, align 8
  %32 = load ptr, ptr %0, align 8, !tbaa !3
  %33 = getelementptr i8, ptr %32, i64 -24
  %34 = load i64, ptr %33, align 8
  %35 = getelementptr i8, ptr %0, i64 %34
  %36 = getelementptr i8, ptr %35, i64 56
  store ptr %31, ptr %36, align 8, !tbaa !3
  %37 = getelementptr inbounds nuw i8, ptr %0, i64 16
  %38 = load ptr, ptr %37, align 8, !tbaa !38
  %.not.i.i.i = icmp eq ptr %38, null
  br i1 %.not.i.i.i, label %_ZN7dropbox6oxygen2nnISt10shared_ptrIN5osgeo4proj9operation19CoordinateOperationEEED2Ev.exit, label %39

39:                                               ; preds = %2
  %40 = getelementptr inbounds nuw i8, ptr %38, i64 8
  %41 = load atomic i64, ptr %40 acquire, align 8
  %42 = icmp eq i64 %41, 4294967297
  %43 = trunc i64 %41 to i32
  br i1 %42, label %44, label %52

44:                                               ; preds = %39
  store i32 0, ptr %40, align 8, !tbaa !61
  %45 = getelementptr inbounds nuw i8, ptr %38, i64 12
  store i32 0, ptr %45, align 4, !tbaa !63
  %46 = load ptr, ptr %38, align 8, !tbaa !3
  %47 = getelementptr inbounds nuw i8, ptr %46, i64 16
  %48 = load ptr, ptr %47, align 8
  tail call void %48(ptr noundef nonnull align 8 dereferenceable(16) %38) #46
  %49 = load ptr, ptr %38, align 8, !tbaa !3
  %50 = getelementptr inbounds nuw i8, ptr %49, i64 24
  %51 = load ptr, ptr %50, align 8
  tail call void %51(ptr noundef nonnull align 8 dereferenceable(16) %38) #46
  br label %_ZN7dropbox6oxygen2nnISt10shared_ptrIN5osgeo4proj9operation19CoordinateOperationEEED2Ev.exit

52:                                               ; preds = %39
  %53 = load i8, ptr @__libc_single_threaded, align 1, !tbaa !14
  %.not.i.i.i.i = icmp eq i8 %53, 0
  br i1 %.not.i.i.i.i, label %56, label %54

54:                                               ; preds = %52
  %55 = add nsw i32 %43, -1
  store i32 %55, ptr %40, align 4, !tbaa !54
  br label %_ZN9__gnu_cxx27__exchange_and_add_dispatchEPii.exit.i.i.i.i

56:                                               ; preds = %52
  %57 = atomicrmw volatile add ptr %40, i32 -1 acq_rel, align 4
  br label %_ZN9__gnu_cxx27__exchange_and_add_dispatchEPii.exit.i.i.i.i

_ZN9__gnu_cxx27__exchange_and_add_dispatchEPii.exit.i.i.i.i: ; preds = %56, %54
  %.0.i.i.i.i.i = phi i32 [ %43, %54 ], [ %57, %56 ]
  %58 = icmp eq i32 %.0.i.i.i.i.i, 1
  br i1 %58, label %59, label %_ZN7dropbox6oxygen2nnISt10shared_ptrIN5osgeo4proj9operation19CoordinateOperationEEED2Ev.exit, !prof !64

59:                                               ; preds = %_ZN9__gnu_cxx27__exchange_and_add_dispatchEPii.exit.i.i.i.i
  tail call void @_ZNSt16_Sp_counted_baseILN9__gnu_cxx12_Lock_policyE2EE24_M_release_last_use_coldEv(ptr noundef nonnull align 8 dereferenceable(16) %38) #46
  br label %_ZN7dropbox6oxygen2nnISt10shared_ptrIN5osgeo4proj9operation19CoordinateOperationEEED2Ev.exit

_ZN7dropbox6oxygen2nnISt10shared_ptrIN5osgeo4proj9operation19CoordinateOperationEEED2Ev.exit: ; preds = %2, %44, %_ZN9__gnu_cxx27__exchange_and_add_dispatchEPii.exit.i.i.i.i, %59
  ret void
}